target datalayout = "e-m:e-p270:32:32-p271:32:32-p272:64:64-i64:64-i128:128-f80:128-n8:16:32:64-S128"
target triple = "x86_64-pc-linux-gnu"

%struct.QuadTree_struct = type { i32, double, i32, ptr, double, ptr, ptr, ptr, i32, ptr }
%struct.node_data_struct = type { double, ptr, i32, ptr, ptr }

; Function Attrs: nounwind uwtable
define internal void @QuadTree_get_supernodes_internal(ptr noundef %0, double noundef %1, ptr noundef %2, i32 noundef %3, ptr noundef %4, ptr noundef %5, ptr noundef %6, ptr noundef %7, ptr noundef %8, ptr noundef %9) #0 {
  %11 = alloca ptr, align 8
  %12 = alloca double, align 8
  %13 = alloca ptr, align 8
  %14 = alloca i32, align 4
  %15 = alloca ptr, align 8
  %16 = alloca ptr, align 8
  %17 = alloca ptr, align 8
  %18 = alloca ptr, align 8
  %19 = alloca ptr, align 8
  %20 = alloca ptr, align 8
  %21 = alloca ptr, align 8
  %22 = alloca double, align 8
  %23 = alloca i32, align 4
  %24 = alloca i32, align 4
  %25 = alloca i32, align 4
  %26 = alloca ptr, align 8
  store ptr %0, ptr %11, align 8, !tbaa !3
  store double %1, ptr %12, align 8, !tbaa !8
  store ptr %2, ptr %13, align 8, !tbaa !10
  store i32 %3, ptr %14, align 4, !tbaa !12
  store ptr %4, ptr %15, align 8, !tbaa !14
  store ptr %5, ptr %16, align 8, !tbaa !14
  store ptr %6, ptr %17, align 8, !tbaa !16
  store ptr %7, ptr %18, align 8, !tbaa !16
  store ptr %8, ptr %19, align 8, !tbaa !16
  store ptr %9, ptr %20, align 8, !tbaa !10
  call void @llvm.lifetime.start.p0(i64 8, ptr %21) #11
  call void @llvm.lifetime.start.p0(i64 8, ptr %22) #11
  call void @llvm.lifetime.start.p0(i64 4, ptr %23) #11
  call void @llvm.lifetime.start.p0(i64 4, ptr %24) #11
  %27 = load ptr, ptr %20, align 8, !tbaa !10
  %28 = load double, ptr %27, align 8, !tbaa !8
  %29 = fadd double %28, 1.000000e+00
  store double %29, ptr %27, align 8, !tbaa !8
  %30 = load ptr, ptr %11, align 8, !tbaa !3
  %31 = icmp ne ptr %30, null
  br i1 %31, label %33, label %32

32:                                               ; preds = %10
  store i32 1, ptr %25, align 4
  br label %214

33:                                               ; preds = %10
  %34 = load ptr, ptr %11, align 8, !tbaa !3
  %35 = getelementptr inbounds nuw %struct.QuadTree_struct, ptr %34, i32 0, i32 2
  %36 = load i32, ptr %35, align 8, !tbaa !18
  store i32 %36, ptr %23, align 4, !tbaa !12
  call void @llvm.lifetime.start.p0(i64 8, ptr %26) #11
  %37 = load ptr, ptr %11, align 8, !tbaa !3
  %38 = getelementptr inbounds nuw %struct.QuadTree_struct, ptr %37, i32 0, i32 7
  %39 = load ptr, ptr %38, align 8, !tbaa !27
  store ptr %39, ptr %26, align 8, !tbaa !28
  br label %40

40:                                               ; preds = %105, %33
  %41 = load ptr, ptr %26, align 8, !tbaa !28
  %42 = icmp ne ptr %41, null
  br i1 %42, label %43, label %109

43:                                               ; preds = %40
  %44 = load i32, ptr %23, align 4, !tbaa !12
  %45 = load ptr, ptr %15, align 8, !tbaa !14
  %46 = load ptr, ptr %16, align 8, !tbaa !14
  %47 = load ptr, ptr %17, align 8, !tbaa !16
  %48 = load ptr, ptr %18, align 8, !tbaa !16
  %49 = load ptr, ptr %19, align 8, !tbaa !16
  call void @check_or_realloc_arrays(i32 noundef %44, ptr noundef %45, ptr noundef %46, ptr noundef %47, ptr noundef %48, ptr noundef %49)
  %50 = load ptr, ptr %26, align 8, !tbaa !28
  %51 = getelementptr inbounds nuw %struct.node_data_struct, ptr %50, i32 0, i32 2
  %52 = load i32, ptr %51, align 8, !tbaa !29
  %53 = load i32, ptr %14, align 4, !tbaa !12
  %54 = icmp ne i32 %52, %53
  br i1 %54, label %55, label %105

55:                                               ; preds = %43
  %56 = load ptr, ptr %26, align 8, !tbaa !28
  %57 = getelementptr inbounds nuw %struct.node_data_struct, ptr %56, i32 0, i32 1
  %58 = load ptr, ptr %57, align 8, !tbaa !31
  store ptr %58, ptr %21, align 8, !tbaa !10
  store i32 0, ptr %24, align 4, !tbaa !12
  br label %59

59:                                               ; preds = %79, %55
  %60 = load i32, ptr %24, align 4, !tbaa !12
  %61 = load i32, ptr %23, align 4, !tbaa !12
  %62 = icmp slt i32 %60, %61
  br i1 %62, label %63, label %82

63:                                               ; preds = %59
  %64 = load ptr, ptr %21, align 8, !tbaa !10
  %65 = load i32, ptr %24, align 4, !tbaa !12
  %66 = sext i32 %65 to i64
  %67 = getelementptr inbounds double, ptr %64, i64 %66
  %68 = load double, ptr %67, align 8, !tbaa !8
  %69 = load ptr, ptr %17, align 8, !tbaa !16
  %70 = load ptr, ptr %69, align 8, !tbaa !10
  %71 = load i32, ptr %23, align 4, !tbaa !12
  %72 = load ptr, ptr %15, align 8, !tbaa !14
  %73 = load i32, ptr %72, align 4, !tbaa !12
  %74 = mul nsw i32 %71, %73
  %75 = load i32, ptr %24, align 4, !tbaa !12
  %76 = add nsw i32 %74, %75
  %77 = sext i32 %76 to i64
  %78 = getelementptr inbounds double, ptr %70, i64 %77
  store double %68, ptr %78, align 8, !tbaa !8
  br label %79

79:                                               ; preds = %63
  %80 = load i32, ptr %24, align 4, !tbaa !12
  %81 = add nsw i32 %80, 1
  store i32 %81, ptr %24, align 4, !tbaa !12
  br label %59, !llvm.loop !32

82:                                               ; preds = %59
  %83 = load ptr, ptr %26, align 8, !tbaa !28
  %84 = getelementptr inbounds nuw %struct.node_data_struct, ptr %83, i32 0, i32 0
  %85 = load double, ptr %84, align 8, !tbaa !34
  %86 = load ptr, ptr %18, align 8, !tbaa !16
  %87 = load ptr, ptr %86, align 8, !tbaa !10
  %88 = load ptr, ptr %15, align 8, !tbaa !14
  %89 = load i32, ptr %88, align 4, !tbaa !12
  %90 = sext i32 %89 to i64
  %91 = getelementptr inbounds double, ptr %87, i64 %90
  store double %85, ptr %91, align 8, !tbaa !8
  %92 = load ptr, ptr %13, align 8, !tbaa !10
  %93 = load ptr, ptr %21, align 8, !tbaa !10
  %94 = load i32, ptr %23, align 4, !tbaa !12
  %95 = call double @point_distance(ptr noundef %92, ptr noundef %93, i32 noundef %94)
  %96 = load ptr, ptr %19, align 8, !tbaa !16
  %97 = load ptr, ptr %96, align 8, !tbaa !10
  %98 = load ptr, ptr %15, align 8, !tbaa !14
  %99 = load i32, ptr %98, align 4, !tbaa !12
  %100 = sext i32 %99 to i64
  %101 = getelementptr inbounds double, ptr %97, i64 %100
  store double %95, ptr %101, align 8, !tbaa !8
  %102 = load ptr, ptr %15, align 8, !tbaa !14
  %103 = load i32, ptr %102, align 4, !tbaa !12
  %104 = add nsw i32 %103, 1
  store i32 %104, ptr %102, align 4, !tbaa !12
  br label %105

105:                                              ; preds = %82, %43
  %106 = load ptr, ptr %26, align 8, !tbaa !28
  %107 = getelementptr inbounds nuw %struct.node_data_struct, ptr %106, i32 0, i32 4
  %108 = load ptr, ptr %107, align 8, !tbaa !35
  store ptr %108, ptr %26, align 8, !tbaa !28
  br label %40, !llvm.loop !36

109:                                              ; preds = %40
  %110 = load ptr, ptr %11, align 8, !tbaa !3
  %111 = getelementptr inbounds nuw %struct.QuadTree_struct, ptr %110, i32 0, i32 6
  %112 = load ptr, ptr %111, align 8, !tbaa !37
  %113 = icmp ne ptr %112, null
  br i1 %113, label %114, label %213

114:                                              ; preds = %109
  %115 = load ptr, ptr %11, align 8, !tbaa !3
  %116 = getelementptr inbounds nuw %struct.QuadTree_struct, ptr %115, i32 0, i32 3
  %117 = load ptr, ptr %116, align 8, !tbaa !38
  %118 = load ptr, ptr %13, align 8, !tbaa !10
  %119 = load i32, ptr %23, align 4, !tbaa !12
  %120 = call double @point_distance(ptr noundef %117, ptr noundef %118, i32 noundef %119)
  store double %120, ptr %22, align 8, !tbaa !8
  %121 = load ptr, ptr %11, align 8, !tbaa !3
  %122 = getelementptr inbounds nuw %struct.QuadTree_struct, ptr %121, i32 0, i32 4
  %123 = load double, ptr %122, align 8, !tbaa !39
  %124 = load double, ptr %12, align 8, !tbaa !8
  %125 = load double, ptr %22, align 8, !tbaa !8
  %126 = fmul double %124, %125
  %127 = fcmp olt double %123, %126
  br i1 %127, label %128, label %185

128:                                              ; preds = %114
  %129 = load i32, ptr %23, align 4, !tbaa !12
  %130 = load ptr, ptr %15, align 8, !tbaa !14
  %131 = load ptr, ptr %16, align 8, !tbaa !14
  %132 = load ptr, ptr %17, align 8, !tbaa !16
  %133 = load ptr, ptr %18, align 8, !tbaa !16
  %134 = load ptr, ptr %19, align 8, !tbaa !16
  call void @check_or_realloc_arrays(i32 noundef %129, ptr noundef %130, ptr noundef %131, ptr noundef %132, ptr noundef %133, ptr noundef %134)
  store i32 0, ptr %24, align 4, !tbaa !12
  br label %135

135:                                              ; preds = %157, %128
  %136 = load i32, ptr %24, align 4, !tbaa !12
  %137 = load i32, ptr %23, align 4, !tbaa !12
  %138 = icmp slt i32 %136, %137
  br i1 %138, label %139, label %160

139:                                              ; preds = %135
  %140 = load ptr, ptr %11, align 8, !tbaa !3
  %141 = getelementptr inbounds nuw %struct.QuadTree_struct, ptr %140, i32 0, i32 5
  %142 = load ptr, ptr %141, align 8, !tbaa !40
  %143 = load i32, ptr %24, align 4, !tbaa !12
  %144 = sext i32 %143 to i64
  %145 = getelementptr inbounds double, ptr %142, i64 %144
  %146 = load double, ptr %145, align 8, !tbaa !8
  %147 = load ptr, ptr %17, align 8, !tbaa !16
  %148 = load ptr, ptr %147, align 8, !tbaa !10
  %149 = load i32, ptr %23, align 4, !tbaa !12
  %150 = load ptr, ptr %15, align 8, !tbaa !14
  %151 = load i32, ptr %150, align 4, !tbaa !12
  %152 = mul nsw i32 %149, %151
  %153 = load i32, ptr %24, align 4, !tbaa !12
  %154 = add nsw i32 %152, %153
  %155 = sext i32 %154 to i64
  %156 = getelementptr inbounds double, ptr %148, i64 %155
  store double %146, ptr %156, align 8, !tbaa !8
  br label %157

157:                                              ; preds = %139
  %158 = load i32, ptr %24, align 4, !tbaa !12
  %159 = add nsw i32 %158, 1
  store i32 %159, ptr %24, align 4, !tbaa !12
  br label %135, !llvm.loop !41

160:                                              ; preds = %135
  %161 = load ptr, ptr %11, align 8, !tbaa !3
  %162 = getelementptr inbounds nuw %struct.QuadTree_struct, ptr %161, i32 0, i32 1
  %163 = load double, ptr %162, align 8, !tbaa !42
  %164 = load ptr, ptr %18, align 8, !tbaa !16
  %165 = load ptr, ptr %164, align 8, !tbaa !10
  %166 = load ptr, ptr %15, align 8, !tbaa !14
  %167 = load i32, ptr %166, align 4, !tbaa !12
  %168 = sext i32 %167 to i64
  %169 = getelementptr inbounds double, ptr %165, i64 %168
  store double %163, ptr %169, align 8, !tbaa !8
  %170 = load ptr, ptr %11, align 8, !tbaa !3
  %171 = getelementptr inbounds nuw %struct.QuadTree_struct, ptr %170, i32 0, i32 5
  %172 = load ptr, ptr %171, align 8, !tbaa !40
  %173 = load ptr, ptr %13, align 8, !tbaa !10
  %174 = load i32, ptr %23, align 4, !tbaa !12
  %175 = call double @point_distance(ptr noundef %172, ptr noundef %173, i32 noundef %174)
  %176 = load ptr, ptr %19, align 8, !tbaa !16
  %177 = load ptr, ptr %176, align 8, !tbaa !10
  %178 = load ptr, ptr %15, align 8, !tbaa !14
  %179 = load i32, ptr %178, align 4, !tbaa !12
  %180 = sext i32 %179 to i64
  %181 = getelementptr inbounds double, ptr %177, i64 %180
  store double %175, ptr %181, align 8, !tbaa !8
  %182 = load ptr, ptr %15, align 8, !tbaa !14
  %183 = load i32, ptr %182, align 4, !tbaa !12
  %184 = add nsw i32 %183, 1
  store i32 %184, ptr %182, align 4, !tbaa !12
  br label %212

185:                                              ; preds = %114
  store i32 0, ptr %24, align 4, !tbaa !12
  br label %186

186:                                              ; preds = %208, %185
  %187 = load i32, ptr %24, align 4, !tbaa !12
  %188 = load i32, ptr %23, align 4, !tbaa !12
  %189 = shl i32 1, %188
  %190 = icmp slt i32 %187, %189
  br i1 %190, label %191, label %211

191:                                              ; preds = %186
  %192 = load ptr, ptr %11, align 8, !tbaa !3
  %193 = getelementptr inbounds nuw %struct.QuadTree_struct, ptr %192, i32 0, i32 6
  %194 = load ptr, ptr %193, align 8, !tbaa !37
  %195 = load i32, ptr %24, align 4, !tbaa !12
  %196 = sext i32 %195 to i64
  %197 = getelementptr inbounds ptr, ptr %194, i64 %196
  %198 = load ptr, ptr %197, align 8, !tbaa !3
  %199 = load double, ptr %12, align 8, !tbaa !8
  %200 = load ptr, ptr %13, align 8, !tbaa !10
  %201 = load i32, ptr %14, align 4, !tbaa !12
  %202 = load ptr, ptr %15, align 8, !tbaa !14
  %203 = load ptr, ptr %16, align 8, !tbaa !14
  %204 = load ptr, ptr %17, align 8, !tbaa !16
  %205 = load ptr, ptr %18, align 8, !tbaa !16
  %206 = load ptr, ptr %19, align 8, !tbaa !16
  %207 = load ptr, ptr %20, align 8, !tbaa !10
  call void @QuadTree_get_supernodes_internal(ptr noundef %198, double noundef %199, ptr noundef %200, i32 noundef %201, ptr noundef %202, ptr noundef %203, ptr noundef %204, ptr noundef %205, ptr noundef %206, ptr noundef %207)
  br label %208

208:                                              ; preds = %191
  %209 = load i32, ptr %24, align 4, !tbaa !12
  %210 = add nsw i32 %209, 1
  store i32 %210, ptr %24, align 4, !tbaa !12
  br label %186, !llvm.loop !43

211:                                              ; preds = %186
  br label %212

212:                                              ; preds = %211, %160
  br label %213

213:                                              ; preds = %212, %109
  call void @llvm.lifetime.end.p0(i64 8, ptr %26) #11
  store i32 0, ptr %25, align 4
  br label %214

214:                                              ; preds = %213, %32
  call void @llvm.lifetime.end.p0(i64 4, ptr %24) #11
  call void @llvm.lifetime.end.p0(i64 4, ptr %23) #11
  call void @llvm.lifetime.end.p0(i64 8, ptr %22) #11
  call void @llvm.lifetime.end.p0(i64 8, ptr %21) #11
  %215 = load i32, ptr %25, align 4
  switch i32 %215, label %217 [
    i32 0, label %216
    i32 1, label %216
  ]

216:                                              ; preds = %214, %214
  ret void

217:                                              ; preds = %214
  unreachable
}