; Function Attrs: nounwind uwtable
define internal fastcc void @QuadTree_get_supernodes_internal(ptr noundef readonly captures(address_is_null) %0, double noundef %1, ptr noundef %2, i32 noundef %3, ptr noundef captures(none) %4, ptr noundef captures(none) %5, ptr noundef captures(none) %6, ptr noundef captures(none) %7, ptr noundef captures(none) %8, ptr noundef captures(none) %9) unnamed_addr #0 {
  %11 = load double, ptr %9, align 8, !tbaa !13
  %12 = fadd double %11, 1.000000e+00
  store double %12, ptr %9, align 8, !tbaa !13
  %.not = icmp eq ptr %0, null
  br i1 %.not, label %.loopexit, label %13

13:                                               ; preds = %10
  %14 = getelementptr inbounds nuw i8, ptr %0, i64 16
  %15 = load i32, ptr %14, align 8, !tbaa !3
  %.fr96 = freeze i32 %15
  %16 = getelementptr inbounds nuw i8, ptr %0, i64 56
  %.087 = load ptr, ptr %16, align 8, !tbaa !18
  %.not8288 = icmp eq ptr %.087, null
  br i1 %.not8288, label %._crit_edge92, label %.lr.ph91

.lr.ph91:                                         ; preds = %13
  %17 = icmp sgt i32 %.fr96, 0
  br i1 %17, label %.lr.ph91.split.us.preheader, label %.lr.ph91.split

.lr.ph91.split.us.preheader:                      ; preds = %.lr.ph91
  %wide.trip.count = zext nneg i32 %.fr96 to i64
  br label %.lr.ph91.split.us

.lr.ph91.split.us:                                ; preds = %.lr.ph91.split.us.preheader, %29
  %.089.us = phi ptr [ %.0.us, %29 ], [ %.087, %.lr.ph91.split.us.preheader ]
  %.val.us = load i32, ptr %4, align 4, !tbaa !14
  tail call fastcc void @check_or_realloc_arrays(i32 noundef %.fr96, i32 %.val.us, ptr noundef %5, ptr noundef %6, ptr noundef %7, ptr noundef %8)
  %18 = getelementptr inbounds nuw i8, ptr %.089.us, i64 16
  %19 = load i32, ptr %18, align 8, !tbaa !19
  %.not84.us = icmp eq i32 %19, %3
  br i1 %.not84.us, label %29, label %.lr.ph.us

.lr.ph.us:                                        ; preds = %.lr.ph91.split.us
  %20 = getelementptr inbounds nuw i8, ptr %.089.us, i64 8
  %21 = load ptr, ptr %20, align 8, !tbaa !21
  %22 = load ptr, ptr %6, align 8, !tbaa !15
  %23 = load i32, ptr %4, align 4, !tbaa !14
  %24 = mul nsw i32 %23, %.fr96
  %25 = sext i32 %24 to i64
  %invariant.gep = getelementptr double, ptr %22, i64 %25
  br label %26

26:                                               ; preds = %.lr.ph.us, %26
  %indvars.iv = phi i64 [ 0, %.lr.ph.us ], [ %indvars.iv.next, %26 ]
  %27 = getelementptr inbounds nuw double, ptr %21, i64 %indvars.iv
  %28 = load double, ptr %27, align 8, !tbaa !13
  %gep = getelementptr double, ptr %invariant.gep, i64 %indvars.iv
  store double %28, ptr %gep, align 8, !tbaa !13
  %indvars.iv.next = add nuw nsw i64 %indvars.iv, 1
  %exitcond.not = icmp eq i64 %indvars.iv.next, %wide.trip.count
  br i1 %exitcond.not, label %._crit_edge.us, label %26, !llvm.loop !22

29:                                               ; preds = %._crit_edge.us, %.lr.ph91.split.us
  %30 = getelementptr inbounds nuw i8, ptr %.089.us, i64 32
  %.0.us = load ptr, ptr %30, align 8, !tbaa !18
  %.not82.us = icmp eq ptr %.0.us, null
  br i1 %.not82.us, label %._crit_edge92, label %.lr.ph91.split.us, !llvm.loop !24

._crit_edge.us:                                   ; preds = %26
  %31 = load double, ptr %.089.us, align 8, !tbaa !25
  %32 = load ptr, ptr %7, align 8, !tbaa !15
  %33 = sext i32 %23 to i64
  %34 = getelementptr inbounds double, ptr %32, i64 %33
  store double %31, ptr %34, align 8, !tbaa !13
  %35 = tail call double @point_distance(ptr noundef %2, ptr noundef nonnull %21, i32 noundef %.fr96) #18
  %36 = load ptr, ptr %8, align 8, !tbaa !15
  %37 = load i32, ptr %4, align 4, !tbaa !14
  %38 = sext i32 %37 to i64
  %39 = getelementptr inbounds double, ptr %36, i64 %38
  store double %35, ptr %39, align 8, !tbaa !13
  %40 = add nsw i32 %37, 1
  store i32 %40, ptr %4, align 4, !tbaa !14
  br label %29

.lr.ph91.split:                                   ; preds = %.lr.ph91, %57
  %.089 = phi ptr [ %.0, %57 ], [ %.087, %.lr.ph91 ]
  %.val = load i32, ptr %4, align 4, !tbaa !14
  tail call fastcc void @check_or_realloc_arrays(i32 noundef %.fr96, i32 %.val, ptr noundef %5, ptr noundef %6, ptr noundef %7, ptr noundef %8)
  %41 = getelementptr inbounds nuw i8, ptr %.089, i64 16
  %42 = load i32, ptr %41, align 8, !tbaa !19
  %.not84 = icmp eq i32 %42, %3
  br i1 %.not84, label %57, label %43

43:                                               ; preds = %.lr.ph91.split
  %44 = getelementptr inbounds nuw i8, ptr %.089, i64 8
  %45 = load ptr, ptr %44, align 8, !tbaa !21
  %46 = load double, ptr %.089, align 8, !tbaa !25
  %47 = load ptr, ptr %7, align 8, !tbaa !15
  %48 = load i32, ptr %4, align 4, !tbaa !14
  %49 = sext i32 %48 to i64
  %50 = getelementptr inbounds double, ptr %47, i64 %49
  store double %46, ptr %50, align 8, !tbaa !13
  %51 = tail call double @point_distance(ptr noundef %2, ptr noundef %45, i32 noundef %.fr96) #18
  %52 = load ptr, ptr %8, align 8, !tbaa !15
  %53 = load i32, ptr %4, align 4, !tbaa !14
  %54 = sext i32 %53 to i64
  %55 = getelementptr inbounds double, ptr %52, i64 %54
  store double %51, ptr %55, align 8, !tbaa !13
  %56 = add nsw i32 %53, 1
  store i32 %56, ptr %4, align 4, !tbaa !14
  br label %57

57:                                               ; preds = %43, %.lr.ph91.split
  %58 = getelementptr inbounds nuw i8, ptr %.089, i64 32
  %.0 = load ptr, ptr %58, align 8, !tbaa !18
  %.not82 = icmp eq ptr %.0, null
  br i1 %.not82, label %._crit_edge92, label %.lr.ph91.split, !llvm.loop !24

._crit_edge92:                                    ; preds = %57, %29, %13
  %59 = getelementptr inbounds nuw i8, ptr %0, i64 48
  %60 = load ptr, ptr %59, align 8, !tbaa !26
  %.not83 = icmp eq ptr %60, null
  br i1 %.not83, label %.loopexit, label %61

61:                                               ; preds = %._crit_edge92
  %62 = getelementptr inbounds nuw i8, ptr %0, i64 24
  %63 = load ptr, ptr %62, align 8, !tbaa !27
  %64 = tail call double @point_distance(ptr noundef %63, ptr noundef %2, i32 noundef %.fr96) #18
  %65 = getelementptr inbounds nuw i8, ptr %0, i64 32
  %66 = load double, ptr %65, align 8, !tbaa !28
  %67 = fmul double %1, %64
  %68 = fcmp olt double %66, %67
  br i1 %68, label %70, label %.preheader

.preheader:                                       ; preds = %61
  %.not97 = icmp eq i32 %.fr96, 31
  br i1 %.not97, label %.loopexit, label %.lr.ph.preheader

.lr.ph.preheader:                                 ; preds = %.preheader
  %69 = shl nuw nsw i32 1, %.fr96
  %wide.trip.count103 = zext nneg i32 %69 to i64
  br label %.lr.ph

70:                                               ; preds = %61
  %.val85 = load i32, ptr %4, align 4, !tbaa !14
  tail call fastcc void @check_or_realloc_arrays(i32 noundef %.fr96, i32 %.val85, ptr noundef %5, ptr noundef %6, ptr noundef %7, ptr noundef %8)
  %71 = icmp sgt i32 %.fr96, 0
  %.pre = load i32, ptr %4, align 4, !tbaa !14
  %72 = getelementptr inbounds nuw i8, ptr %0, i64 40
  %73 = load ptr, ptr %72, align 8, !tbaa !29
  br i1 %71, label %.lr.ph95, label %._crit_edge

.lr.ph95:                                         ; preds = %70
  %74 = load ptr, ptr %6, align 8, !tbaa !15
  %75 = mul nsw i32 %.pre, %.fr96
  %76 = sext i32 %75 to i64
  %wide.trip.count108 = zext nneg i32 %.fr96 to i64
  %invariant.gep112 = getelementptr double, ptr %74, i64 %76
  br label %77

77:                                               ; preds = %.lr.ph95, %77
  %indvars.iv105 = phi i64 [ 0, %.lr.ph95 ], [ %indvars.iv.next106, %77 ]
  %78 = getelementptr inbounds nuw double, ptr %73, i64 %indvars.iv105
  %79 = load double, ptr %78, align 8, !tbaa !13
  %gep113 = getelementptr double, ptr %invariant.gep112, i64 %indvars.iv105
  store double %79, ptr %gep113, align 8, !tbaa !13
  %indvars.iv.next106 = add nuw nsw i64 %indvars.iv105, 1
  %exitcond109.not = icmp eq i64 %indvars.iv.next106, %wide.trip.count108
  br i1 %exitcond109.not, label %._crit_edge, label %77, !llvm.loop !30

._crit_edge:                                      ; preds = %77, %70
  %80 = getelementptr inbounds nuw i8, ptr %0, i64 8
  %81 = load double, ptr %80, align 8, !tbaa !31
  %82 = load ptr, ptr %7, align 8, !tbaa !15
  %83 = sext i32 %.pre to i64
  %84 = getelementptr inbounds double, ptr %82, i64 %83
  store double %81, ptr %84, align 8, !tbaa !13
  %85 = tail call double @point_distance(ptr noundef %73, ptr noundef %2, i32 noundef %.fr96) #18
  %86 = load ptr, ptr %8, align 8, !tbaa !15
  %87 = load i32, ptr %4, align 4, !tbaa !14
  %88 = sext i32 %87 to i64
  %89 = getelementptr inbounds double, ptr %86, i64 %88
  store double %85, ptr %89, align 8, !tbaa !13
  %90 = add nsw i32 %87, 1
  store i32 %90, ptr %4, align 4, !tbaa !14
  br label %.loopexit

.lr.ph:                                           ; preds = %.lr.ph.preheader, %.lr.ph
  %indvars.iv100 = phi i64 [ 0, %.lr.ph.preheader ], [ %indvars.iv.next101, %.lr.ph ]
  %91 = load ptr, ptr %59, align 8, !tbaa !26
  %92 = getelementptr inbounds nuw ptr, ptr %91, i64 %indvars.iv100
  %93 = load ptr, ptr %92, align 8, !tbaa !32
  tail call fastcc void @QuadTree_get_supernodes_internal(ptr noundef %93, double noundef %1, ptr noundef %2, i32 noundef %3, ptr noundef %4, ptr noundef %5, ptr noundef %6, ptr noundef %7, ptr noundef %8, ptr noundef nonnull %9)
  %indvars.iv.next101 = add nuw nsw i64 %indvars.iv100, 1
  %exitcond104.not = icmp eq i64 %indvars.iv.next101, %wide.trip.count103
  br i1 %exitcond104.not, label %.loopexit, label %.lr.ph, !llvm.loop !34

.loopexit:                                        ; preds = %.lr.ph, %.preheader, %._crit_edge92, %._crit_edge, %10
  ret void
}